; Function Attrs: nounwind uwtable
define dso_local i64 @pg_stat_get_db_sessions_abandoned(ptr noundef readonly captures(none) %0) local_unnamed_addr #0 {
  %2 = getelementptr inbounds nuw i8, ptr %0, i64 32
  %3 = load i64, ptr %2, align 8
  %4 = trunc i64 %3 to i32
  %5 = tail call ptr @pgstat_fetch_stat_dbentry(i32 noundef %4) #9
  %6 = icmp eq ptr %5, null
  br i1 %6, label %10, label %7

7:                                                ; preds = %1
  %8 = getelementptr inbounds nuw i8, ptr %5, i64 216
  %9 = load i64, ptr %8, align 8
  br label %10

10:                                               ; preds = %1, %7
  %.0 = phi i64 [ %9, %7 ], [ 0, %1 ]
  ret i64 %.0
}